; Function Attrs: nounwind uwtable
define ptr @l_Array_forIn_x27Unsafe_loop___at_Lean_Elab_FixedParams_Info_setVarying___spec__3(ptr noundef %0, ptr noundef readnone captures(none) %1, ptr noundef readnone captures(none) %2, ptr noundef readonly captures(none) %3, i64 noundef %4, i64 noundef %5, ptr noundef %6) local_unnamed_addr #1 {
  %.not26 = icmp ult i64 %5, %4
  br i1 %.not26, label %.lr.ph, label %._crit_edge

.lr.ph:                                           ; preds = %7
  %8 = getelementptr inbounds nuw i8, ptr %3, i64 24
  br label %9

9:                                                ; preds = %.lr.ph, %20
  %.01428 = phi i64 [ %5, %.lr.ph ], [ %22, %20 ]
  %.01627 = phi ptr [ %6, %.lr.ph ], [ %21, %20 ]
  %10 = getelementptr inbounds nuw [0 x ptr], ptr %8, i64 0, i64 %.01428
  %11 = load ptr, ptr %10, align 8, !tbaa !9
  %12 = ptrtoint ptr %11 to i64
  %13 = and i64 %12, 1
  %.not.i = icmp eq i64 %13, 0
  br i1 %.not.i, label %14, label %20

14:                                               ; preds = %9
  %.val.i.i = load i32, ptr %11, align 4, !tbaa !4
  %15 = icmp sgt i32 %.val.i.i, 0
  br i1 %15, label %16, label %18, !prof !11

16:                                               ; preds = %14
  %17 = add nuw i32 %.val.i.i, 1
  store i32 %17, ptr %11, align 4, !tbaa !4
  br label %20

18:                                               ; preds = %14
  %.not.i.i = icmp eq i32 %.val.i.i, 0
  br i1 %.not.i.i, label %20, label %19

19:                                               ; preds = %18
  tail call void @lean_inc_ref_cold(ptr noundef nonnull %11) #5
  br label %20

20:                                               ; preds = %19, %18, %16, %9
  %21 = tail call ptr @l_Lean_Elab_FixedParams_Info_setVarying(ptr noundef %0, ptr noundef %11, ptr noundef %.01627)
  %22 = add nuw i64 %.01428, 1
  %exitcond.not = icmp eq i64 %22, %4
  br i1 %exitcond.not, label %._crit_edge, label %9

._crit_edge:                                      ; preds = %20, %7
  %.016.lcssa = phi ptr [ %6, %7 ], [ %21, %20 ]
  ret ptr %.016.lcssa
}